; Function Attrs: mustprogress nounwind uwtable
define dso_local noundef zeroext i1 @_ZN4llvm17JumpThreadingPass24doesBlockHaveProfileDataEPNS_10BasicBlockE(ptr nocapture noundef nonnull readnone align 8 dereferenceable(296) %0, ptr noundef readonly %1) local_unnamed_addr #0 align 2 {
  %3 = getelementptr inbounds nuw i8, ptr %1, i64 48
  %4 = load ptr, ptr %3, align 8
  %5 = icmp eq ptr %3, %4
  br i1 %5, label %_ZN4llvm10BasicBlock13getTerminatorEv.exit.thread, label %6

6:                                                ; preds = %2
  %7 = getelementptr inbounds i8, ptr %4, i64 -24
  %8 = load i8, ptr %7, align 8
  %9 = zext i8 %8 to i32
  %10 = add nsw i32 %9, -30
  %11 = icmp ult i32 %10, 11
  br i1 %11, label %_ZN4llvm10BasicBlock13getTerminatorEv.exit, label %_ZN4llvm10BasicBlock13getTerminatorEv.exit.thread

_ZN4llvm10BasicBlock13getTerminatorEv.exit:       ; preds = %6
  %12 = tail call noundef i32 @_ZNK4llvm11Instruction16getNumSuccessorsEv(ptr noundef nonnull align 8 dereferenceable(72) %7) #21
  %13 = icmp ult i32 %12, 2
  br i1 %13, label %_ZN4llvm10BasicBlock13getTerminatorEv.exit.thread, label %14

14:                                               ; preds = %_ZN4llvm10BasicBlock13getTerminatorEv.exit
  %15 = tail call noundef zeroext i1 @_ZN4llvm22hasValidBranchWeightMDERKNS_11InstructionE(ptr noundef nonnull align 8 dereferenceable(72) %7) #19
  br label %_ZN4llvm10BasicBlock13getTerminatorEv.exit.thread

_ZN4llvm10BasicBlock13getTerminatorEv.exit.thread: ; preds = %6, %2, %_ZN4llvm10BasicBlock13getTerminatorEv.exit, %14
  %.0 = phi i1 [ %15, %14 ], [ false, %_ZN4llvm10BasicBlock13getTerminatorEv.exit ], [ false, %2 ], [ false, %6 ]
  ret i1 %.0
}